Certificate:
    Data:
        Version: 3 (0x2)
        Serial Number: 1 (0x1)
        Signature Algorithm: sha256WithRSAEncryption
        Issuer: C=CH, O=HEIG-VD, CN=Martins-TLS
        Validity
            Not Before: Jun 12 11:28:57 2023 GMT
            Not After : Jul 11 11:28:57 2024 GMT
        Subject: C=CH, O=HEIG-VD, CN=10.192.75.192
        Subject Public Key Info:
            Public Key Algorithm: rsaEncryption
                Public-Key: (4096 bit)
                Modulus:
                    00:90:57:57:79:6f:82:c0:8a:dd:16:1a:04:6b:9f:
                    b9:73:8f:76:3a:f4:47:4d:fb:07:07:a6:ae:cb:96:
                    4c:1b:7f:2d:50:dd:53:9b:bc:32:ef:ee:07:82:b0:
                    25:42:3f:08:02:e4:38:c8:5a:1e:55:6e:9c:2a:3c:
                    09:6c:5b:ad:03:7d:37:e0:34:0f:4d:86:4f:ee:e7:
                    cf:77:42:33:aa:99:14:1b:94:25:66:7d:22:64:a2:
                    be:c6:f2:12:9b:93:fb:39:8a:4f:43:ac:9c:f1:40:
                    b6:07:5e:b5:5b:2a:72:0e:10:80:8e:8b:46:f5:66:
                    cb:04:05:a6:a3:01:8f:d3:b6:1c:ed:31:b9:25:8c:
                    53:00:d3:60:8c:61:fa:8e:b4:d9:79:be:c3:fb:6b:
                    fb:e7:95:28:54:59:16:5b:9b:28:11:b1:f4:aa:4d:
                    6e:53:4e:c6:3c:dd:df:e0:f8:21:bc:3b:4e:d5:48:
                    0b:55:87:88:bd:33:71:96:37:6d:f1:c9:0b:4e:ff:
                    d1:89:af:92:0a:9a:14:0e:9e:51:1e:8b:0b:64:0b:
                    f5:9c:b7:93:98:58:ac:72:95:2a:48:f8:82:fe:56:
                    f9:07:b8:6b:18:1a:22:52:42:19:01:e7:76:50:05:
                    2b:c6:e0:0e:74:f4:27:64:9d:44:a6:08:f8:a8:af:
                    1b:69:c0:e8:14:af:10:4c:a0:dc:20:54:3d:04:9f:
                    1c:d7:ed:c5:d7:f7:17:d5:98:ab:5e:26:26:cd:0e:
                    36:a7:f2:d5:44:48:93:58:4d:e3:24:0e:d2:9a:71:
                    54:6f:27:d8:a6:5a:e6:d0:96:82:2c:78:b6:46:87:
                    33:34:33:dc:92:20:79:e1:ec:0d:7b:e6:79:e6:e2:
                    ea:80:9c:2b:fd:61:21:2c:9a:28:11:48:77:fb:79:
                    42:12:ea:92:bc:5c:76:76:dd:b6:76:5b:92:08:38:
                    16:e3:bf:5e:19:b4:0d:5d:dd:04:13:cf:88:1a:84:
                    8c:cf:f4:89:97:1c:ee:cb:8c:68:26:f5:70:59:e6:
                    60:08:c0:ec:86:ad:57:34:de:3f:cb:67:8c:a0:81:
                    0c:3f:60:62:50:19:61:dd:8d:02:9d:81:50:45:ee:
                    d6:b7:30:2f:a0:38:8a:63:b5:44:d0:28:7b:b8:6b:
                    02:df:48:03:de:9e:bc:88:07:42:46:8d:db:70:63:
                    82:9e:1d:7b:83:12:e2:d9:73:59:9a:09:9c:06:29:
                    84:17:47:e2:14:37:46:bf:b9:8e:19:93:fe:e0:58:
                    bd:bc:b6:1a:c0:6d:a7:20:b4:31:5a:8c:a6:43:e2:
                    29:38:93:4a:ae:00:db:b2:12:19:98:3e:a7:b0:46:
                    6a:89:5b
                Exponent: 65537 (0x10001)
        X509v3 extensions:
            X509v3 Key Usage: critical
                Digital Signature, Key Encipherment
            X509v3 Basic Constraints: 
                CA:FALSE
            X509v3 Extended Key Usage: 
                TLS Web Server Authentication, TLS Web Client Authentication
            X509v3 Subject Key Identifier: 
                1F:B5:56:48:3E:8B:EE:F3:84:F0:1B:22:F0:35:41:E9:6C:0E:25:09
            X509v3 Authority Key Identifier: 
                F0:B6:44:28:06:9B:C9:FC:18:41:4A:C8:10:5A:53:F6:F4:27:A3:6A
            X509v3 Subject Alternative Name: 
                IP Address:10.192.75.192
    Signature Algorithm: sha256WithRSAEncryption
    Signature Value:
        01:7a:d3:23:22:fe:83:f2:51:42:63:a2:8a:f2:d5:53:9a:86:
        64:6f:66:e4:6a:c9:a6:0c:49:a7:a9:30:59:f0:0f:51:fb:03:
        3d:d9:ce:39:71:e2:cb:38:46:92:b7:15:f2:9f:92:ae:04:9a:
        08:d9:41:56:89:65:c8:98:8e:86:dc:ac:c3:59:52:ee:f2:a0:
        f1:6c:15:9d:10:b2:3c:79:bb:3d:6e:fb:4b:38:09:51:29:a6:
        b4:d7:9e:20:34:f3:fb:64:91:8b:db:c7:5f:83:22:ba:62:9a:
        c0:f7:dd:8f:3c:b1:5a:5b:3c:9b:c5:6f:1c:d1:d9:29:12:75:
        2c:f8:2f:35:2f:d5:47:d1:66:f9:3c:60:f7:2b:a7:07:27:2b:
        5b:04:f7:9b:da:a0:f0:e6:e9:e1:c0:74:df:d9:8b:9a:61:6d:
        e6:9e:a6:73:c0:bc:a4:1e:09:79:bc:c1:c3:18:0a:85:7c:22:
        f0:19:23:4f:b3:97:8a:1a:2c:4d:3d:82:91:9f:27:1a:52:dc:
        a8:5c:ee:f8:f3:c1:fc:0c:87:b8:a4:a4:32:af:dc:1e:3a:12:
        c5:3c:13:d2:c7:65:fa:ab:74:a3:9c:e0:4f:4a:14:b5:42:08:
        f9:a9:15:3d:14:e8:fb:cb:51:f4:77:9d:61:a9:87:1e:fb:eb:
        b5:94:92:18:44:0a:b9:45:cc:ea:96:5b:e2:4d:0d:ec:04:41:
        57:d4:3a:f8:9e:e4:88:1d:d1:44:c5:b0:25:04:0e:87:58:e5:
        6d:26:33:ed:4d:dd:98:23:79:23:9c:76:7a:43:fa:a3:60:49:
        a7:57:fe:ba:69:d4:da:0f:4f:4c:c9:1e:f5:7b:25:26:84:ba:
        b3:87:94:9c:0f:14:fd:08:53:8d:e6:7c:cc:4e:77:1b:b9:70:
        5a:28:c1:b2:16:7b:e5:4e:b3:bb:bf:90:64:fc:df:b8:6f:dc:
        35:8b:06:f7:35:6f:cd:88:40:6f:84:f4:8f:76:ce:97:38:53:
        e9:b6:de:9d:60:99:85:f2:7b:dd:85:d6:d2:6e:d6:ca:ca:03:
        a1:99:c7:17:99:80:c6:9f:c1:61:46:60:26:cf:99:70:54:10:
        21:d1:48:4d:9c:59:23:13:93:6a:51:ea:fb:df:3a:bf:d3:7b:
        3e:02:53:9a:58:0d:d3:e4:1a:33:fe:e6:a8:7a:e7:c5:32:f4:
        65:f0:fb:8c:02:47:63:cb:9e:7f:d3:67:14:77:cf:a7:fc:c2:
        5b:51:c2:11:c3:2c:bf:62:5b:65:c6:c7:96:8c:39:3a:c9:6a:
        5c:e7:7f:32:67:68:2f:21:56:9f:1f:c1:8d:1a:33:eb:86:1e:
        9d:96:32:19:e7:39:94:4d
-----BEGIN CERTIFICATE-----
MIIFdjCCA16gAwIBAgIBATANBgkqhkiG9w0BAQsFADA1MQswCQYDVQQGEwJDSDEQ
MA4GA1UECgwHSEVJRy1WRDEUMBIGA1UEAwwLTWFydGlucy1UTFMwHhcNMjMwNjEy
MTEyODU3WhcNMjQwNzExMTEyODU3WjA3MQswCQYDVQQGEwJDSDEQMA4GA1UECgwH
SEVJRy1WRDEWMBQGA1UEAwwNMTAuMTkyLjc1LjE5MjCCAiIwDQYJKoZIhvcNAQEB
BQADggIPADCCAgoCggIBAJBXV3lvgsCK3RYaBGufuXOPdjr0R037BwemrsuWTBt/
LVDdU5u8Mu/uB4KwJUI/CALkOMhaHlVunCo8CWxbrQN9N+A0D02GT+7nz3dCM6qZ
FBuUJWZ9ImSivsbyEpuT+zmKT0OsnPFAtgdetVsqcg4QgI6LRvVmywQFpqMBj9O2
HO0xuSWMUwDTYIxh+o602Xm+w/tr++eVKFRZFlubKBGx9KpNblNOxjzd3+D4Ibw7
TtVIC1WHiL0zcZY3bfHJC07/0YmvkgqaFA6eUR6LC2QL9Zy3k5hYrHKVKkj4gv5W
+Qe4axgaIlJCGQHndlAFK8bgDnT0J2SdRKYI+KivG2nA6BSvEEyg3CBUPQSfHNft
xdf3F9WYq14mJs0ONqfy1URIk1hN4yQO0ppxVG8n2KZa5tCWgix4tkaHMzQz3JIg
eeHsDXvmeebi6oCcK/1hISyaKBFId/t5QhLqkrxcdnbdtnZbkgg4FuO/Xhm0DV3d
BBPPiBqEjM/0iZcc7suMaCb1cFnmYAjA7IatVzTeP8tnjKCBDD9gYlAZYd2NAp2B
UEXu1rcwL6A4imO1RNAoe7hrAt9IA96evIgHQkaN23Bjgp4de4MS4tlzWZoJnAYp
hBdH4hQ3Rr+5jhmT/uBYvby2GsBtpyC0MVqMpkPiKTiTSq4A27ISGZg+p7BGaolb
AgMBAAGjgY4wgYswDgYDVR0PAQH/BAQDAgWgMAkGA1UdEwQCMAAwHQYDVR0lBBYw
FAYIKwYBBQUHAwEGCCsGAQUFBwMCMB0GA1UdDgQWBBQftVZIPovu84TwGyLwNUHp
bA4lCTAfBgNVHSMEGDAWgBTwtkQoBpvJ/BhBSsgQWlP29CejajAPBgNVHREECDAG
hwQKwEvAMA0GCSqGSIb3DQEBCwUAA4ICAQABetMjIv6D8lFCY6KK8tVTmoZkb2bk
asmmDEmnqTBZ8A9R+wM92c45ceLLOEaStxXyn5KuBJoI2UFWiWXImI6G3KzDWVLu
8qDxbBWdELI8ebs9bvtLOAlRKaa0154gNPP7ZJGL28dfgyK6YprA992PPLFaWzyb
xW8c0dkpEnUs+C81L9VH0Wb5PGD3K6cHJytbBPeb2qDw5unhwHTf2YuaYW3mnqZz
wLykHgl5vMHDGAqFfCLwGSNPs5eKGixNPYKRnycaUtyoXO7488H8DIe4pKQyr9we
OhLFPBPSx2X6q3SjnOBPShS1Qgj5qRU9FOj7y1H0d51hqYce++u1lJIYRAq5Rczq
llviTQ3sBEFX1Dr4nuSIHdFExbAlBA6HWOVtJjPtTd2YI3kjnHZ6Q/qjYEmnV/66
adTaD09MyR71eyUmhLqzh5ScDxT9CFON5nzMTncbuXBaKMGyFnvlTrO7v5Bk/N+4
b9w1iwb3NW/NiEBvhPSPds6XOFPptt6dYJmF8nvdhdbSbtbKygOhmccXmYDGn8Fh
RmAmz5lwVBAh0UhNnFkjE5NqUer73zq/03s+AlOaWA3T5Boz/uaoeufFMvRl8PuM
Akdjy55/02cUd8+n/MJbUcIRwyy/YltlxseWjDk6yWpc538yZ2gvIVafH8GNGjPr
hh6dljIZ5zmUTQ==
-----END CERTIFICATE-----
