Certificate:
    Data:
        Version: 3 (0x2)
        Serial Number: 1 (0x1)
        Signature Algorithm: sha256WithRSAEncryption
        Issuer: C=CH, O=HEIG-VD, CN=Martins-Email
        Validity
            Not Before: Jun 12 09:07:01 2023 GMT
            Not After : Jul 11 09:07:01 2024 GMT
        Subject: C=CH, O=HEIG-VD, CN=alexis.martinslemospinto@heig-vd.ch
        Subject Public Key Info:
            Public Key Algorithm: rsaEncryption
                Public-Key: (4096 bit)
                Modulus:
                    00:cc:51:69:22:1b:a5:74:db:12:fb:26:d7:a4:61:
                    05:bb:4a:75:1e:7c:93:e3:eb:f1:c8:34:be:a9:02:
                    1f:62:3d:0a:e3:2a:7f:e0:e3:04:5d:5b:bb:13:8d:
                    16:07:8a:b5:85:87:35:08:9e:80:14:1c:d4:04:e4:
                    f4:a6:03:cc:24:28:fd:e6:e9:ba:a7:39:51:50:9e:
                    75:36:70:a1:e0:70:21:8b:d0:e4:ec:65:5e:d6:2e:
                    db:e3:57:5e:db:76:79:a5:f0:21:a3:75:a3:db:6a:
                    89:a5:88:34:cb:55:ad:50:c6:b5:8c:86:c5:be:3d:
                    f0:8e:33:77:b9:76:d3:c4:a0:fa:b8:6d:cb:bf:8a:
                    5d:76:43:11:31:dd:44:47:ad:5c:e5:07:ea:8b:54:
                    56:d5:a9:53:70:76:aa:ea:ea:74:0e:64:be:5f:32:
                    28:d8:9f:9e:91:5b:45:0c:e7:79:ab:e4:05:7d:e0:
                    65:72:18:83:72:17:b9:3a:5d:25:ed:61:0f:45:83:
                    da:e5:a6:28:d9:cc:75:d7:57:de:da:87:78:84:b5:
                    56:e5:51:8f:c3:50:25:19:dc:63:05:8d:6e:8a:fd:
                    1c:57:c1:a2:92:93:3c:49:be:5a:d8:4a:51:2e:cc:
                    0f:da:75:0e:d1:00:bb:52:22:6a:37:43:da:04:9c:
                    ee:9e:fe:08:19:47:87:08:5b:2e:f4:10:b4:64:41:
                    5b:18:3f:98:8c:80:a6:d9:37:73:34:93:b4:0c:07:
                    f1:31:08:2f:91:70:ac:77:67:d7:ae:0c:3b:f2:52:
                    59:27:e6:0c:33:9c:01:26:e8:e2:8e:6d:63:5c:5c:
                    f9:67:c7:d3:05:46:d1:12:f8:52:b2:c9:31:9c:87:
                    56:0a:b1:6b:88:de:d1:a8:aa:26:fe:ef:b5:94:f7:
                    3a:f5:b6:b2:82:00:5f:23:0a:52:e0:c4:90:fd:4e:
                    69:7c:87:e0:48:79:03:18:f3:78:c3:42:f1:59:2f:
                    24:9c:cf:57:d3:be:d1:1c:e4:cb:b7:bb:59:f4:9e:
                    71:19:44:c9:db:7e:ab:1b:b3:a4:75:8d:2c:82:93:
                    ff:31:5f:54:9b:fe:a6:da:f6:48:2c:dc:65:bd:7b:
                    82:b5:a7:25:a1:a1:8c:09:85:22:59:b8:da:53:6f:
                    a1:52:6b:71:0a:5d:78:b5:79:5d:61:80:e2:6a:74:
                    da:d1:2e:c6:43:f0:20:c7:0b:ac:7d:d6:ea:a4:c0:
                    67:07:fd:c4:19:55:5f:2b:38:ab:b5:be:6e:40:e5:
                    c7:40:87:ca:d8:71:30:bd:24:9e:9d:5b:cf:85:09:
                    b4:ae:8d:d6:35:30:a1:95:b5:61:eb:13:0c:6c:74:
                    21:d1:15
                Exponent: 65537 (0x10001)
        X509v3 extensions:
            X509v3 Key Usage: critical
                Digital Signature, Key Encipherment
            X509v3 Basic Constraints: 
                CA:FALSE
            X509v3 Extended Key Usage: 
                E-mail Protection, TLS Web Client Authentication, Any Extended Key Usage
            X509v3 Subject Key Identifier: 
                29:D7:00:91:4A:29:67:D1:AF:B4:F4:76:8D:8A:89:A2:15:EB:01:B5
            X509v3 Authority Key Identifier: 
                03:70:A1:2D:01:AA:CE:18:AE:A2:1C:38:9F:DA:79:24:29:72:AA:D7
            X509v3 Subject Alternative Name: 
                email:alexis.martinslemospinto@heig-vd.ch
    Signature Algorithm: sha256WithRSAEncryption
    Signature Value:
        18:38:d1:c1:df:a4:c2:22:6d:b7:dc:22:15:47:99:e0:0f:cb:
        05:7d:cf:74:59:0b:61:6d:d9:92:db:1c:85:ba:55:af:0f:10:
        cd:94:b1:84:17:9e:05:57:71:ca:af:06:2e:73:44:3a:fd:2d:
        0c:fe:69:02:84:07:6c:6d:43:6f:a4:92:54:c2:fa:ed:5d:ac:
        f0:99:d2:5e:5f:2d:0c:84:3d:f1:47:cf:8e:22:60:cf:5d:b0:
        de:20:d9:cb:33:19:39:45:9c:64:16:cf:55:b4:f0:a6:47:f2:
        9b:85:bf:1c:fe:b8:72:8d:6c:e9:df:e3:74:03:42:9b:4d:82:
        57:a1:a6:53:c3:ad:2c:34:1a:06:8f:71:0f:b3:00:62:0f:c1:
        aa:66:e8:47:bb:27:d2:0a:e5:0f:0f:20:02:95:5d:64:ee:4f:
        ba:60:87:69:9e:aa:7f:43:b1:4a:8f:c8:67:22:79:34:9c:0e:
        be:78:91:fd:42:1b:6b:b8:f2:b1:9c:53:1e:0e:49:68:11:f0:
        fe:17:93:aa:38:96:05:d4:1b:a0:62:de:e0:ef:07:a2:63:63:
        89:e8:cf:5f:07:5c:93:77:95:22:1b:54:c8:91:83:7f:ab:e4:
        46:a2:3c:29:b4:93:b5:b0:3e:4b:f9:37:c2:3f:ac:3f:4b:62:
        48:75:f9:f9:1d:86:1a:4c:7c:94:a9:ad:00:63:00:e8:18:16:
        63:da:3a:54:45:bb:b9:b1:8d:a1:f9:f4:7e:90:7f:76:3a:ae:
        1d:65:07:91:07:5a:86:1a:d5:31:0c:07:85:8a:a8:0b:87:fa:
        20:93:8c:77:0c:1c:69:9c:e1:77:ae:99:a4:9e:20:9e:6f:ae:
        db:f6:76:d1:95:86:dd:97:b9:8d:6f:c2:97:24:1a:cc:8c:07:
        eb:ba:91:f6:66:aa:f5:5d:d1:d4:80:7f:4a:df:4b:48:4b:55:
        34:27:7b:fa:6f:f6:34:5d:a2:41:4d:c5:53:c0:48:1e:2c:ed:
        ac:f7:d8:29:4b:a5:2f:0b:3d:2e:c5:24:88:bb:af:74:b0:bf:
        ae:86:c2:e0:85:6e:b7:a8:8f:93:10:51:26:fe:a4:08:59:ab:
        7f:8e:d8:f5:d4:b4:c9:bc:10:71:92:77:2a:9d:df:fb:cc:94:
        4a:ca:db:7a:92:0f:d1:1b:36:58:37:76:59:df:4a:b6:e7:9a:
        a7:fd:39:ee:70:e6:6c:af:d6:8d:a6:57:6b:7a:61:fa:af:2c:
        a7:d3:7e:1e:1c:94:25:f5:e4:ae:9c:0b:a6:89:38:2f:70:31:
        57:c9:6d:4a:31:b2:6b:f7:de:08:65:64:19:16:c7:7c:e0:9a:
        08:8a:5e:d8:c3:e7:3e:da
-----BEGIN CERTIFICATE-----
MIIFszCCA5ugAwIBAgIBATANBgkqhkiG9w0BAQsFADA3MQswCQYDVQQGEwJDSDEQ
MA4GA1UECgwHSEVJRy1WRDEWMBQGA1UEAwwNTWFydGlucy1FbWFpbDAeFw0yMzA2
MTIwOTA3MDFaFw0yNDA3MTEwOTA3MDFaME0xCzAJBgNVBAYTAkNIMRAwDgYDVQQK
DAdIRUlHLVZEMSwwKgYDVQQDDCNhbGV4aXMubWFydGluc2xlbW9zcGludG9AaGVp
Zy12ZC5jaDCCAiIwDQYJKoZIhvcNAQEBBQADggIPADCCAgoCggIBAMxRaSIbpXTb
Evsm16RhBbtKdR58k+Pr8cg0vqkCH2I9CuMqf+DjBF1buxONFgeKtYWHNQiegBQc
1ATk9KYDzCQo/ebpuqc5UVCedTZwoeBwIYvQ5OxlXtYu2+NXXtt2eaXwIaN1o9tq
iaWINMtVrVDGtYyGxb498I4zd7l208Sg+rhty7+KXXZDETHdREetXOUH6otUVtWp
U3B2qurqdA5kvl8yKNifnpFbRQzneavkBX3gZXIYg3IXuTpdJe1hD0WD2uWmKNnM
dddX3tqHeIS1VuVRj8NQJRncYwWNbor9HFfBopKTPEm+WthKUS7MD9p1DtEAu1Ii
ajdD2gSc7p7+CBlHhwhbLvQQtGRBWxg/mIyAptk3czSTtAwH8TEIL5FwrHdn164M
O/JSWSfmDDOcASbo4o5tY1xc+WfH0wVG0RL4UrLJMZyHVgqxa4je0aiqJv7vtZT3
OvW2soIAXyMKUuDEkP1OaXyH4Eh5AxjzeMNC8VkvJJzPV9O+0Rzky7e7WfSecRlE
ydt+qxuzpHWNLIKT/zFfVJv+ptr2SCzcZb17grWnJaGhjAmFIlm42lNvoVJrcQpd
eLV5XWGA4mp02tEuxkPwIMcLrH3W6qTAZwf9xBlVXys4q7W+bkDlx0CHythxML0k
np1bz4UJtK6N1jUwoZW1YesTDGx0IdEVAgMBAAGjgbMwgbAwDgYDVR0PAQH/BAQD
AgWgMAkGA1UdEwQCMAAwIwYDVR0lBBwwGgYIKwYBBQUHAwQGCCsGAQUFBwMCBgRV
HSUAMB0GA1UdDgQWBBQp1wCRSiln0a+09HaNiomiFesBtTAfBgNVHSMEGDAWgBQD
cKEtAarOGK6iHDif2nkkKXKq1zAuBgNVHREEJzAlgSNhbGV4aXMubWFydGluc2xl
bW9zcGludG9AaGVpZy12ZC5jaDANBgkqhkiG9w0BAQsFAAOCAgEAGDjRwd+kwiJt
t9wiFUeZ4A/LBX3PdFkLYW3ZktschbpVrw8QzZSxhBeeBVdxyq8GLnNEOv0tDP5p
AoQHbG1Db6SSVML67V2s8JnSXl8tDIQ98UfPjiJgz12w3iDZyzMZOUWcZBbPVbTw
pkfym4W/HP64co1s6d/jdANCm02CV6GmU8OtLDQaBo9xD7MAYg/BqmboR7sn0grl
Dw8gApVdZO5PumCHaZ6qf0OxSo/IZyJ5NJwOvniR/UIba7jysZxTHg5JaBHw/heT
qjiWBdQboGLe4O8HomNjiejPXwdck3eVIhtUyJGDf6vkRqI8KbSTtbA+S/k3wj+s
P0tiSHX5+R2GGkx8lKmtAGMA6BgWY9o6VEW7ubGNofn0fpB/djquHWUHkQdahhrV
MQwHhYqoC4f6IJOMdwwcaZzhd66ZpJ4gnm+u2/Z20ZWG3Ze5jW/ClyQazIwH67qR
9maq9V3R1IB/St9LSEtVNCd7+m/2NF2iQU3FU8BIHiztrPfYKUulLws9LsUkiLuv
dLC/robC4IVut6iPkxBRJv6kCFmrf47Y9dS0ybwQcZJ3Kp3f+8yUSsrbepIP0Rs2
WDd2Wd9Ktueap/057nDmbK/WjaZXa3ph+q8sp9N+HhyUJfXkrpwLpok4L3AxV8lt
SjGya/feCGVkGRbHfOCaCIpe2MPnPto=
-----END CERTIFICATE-----
