Certificate:
    Data:
        Version: 3 (0x2)
        Serial Number: 26 (0x1a)
        Signature Algorithm: sha256WithRSAEncryption
        Issuer: C=CH, O=HEIG-VD, CN=HEIG-VDRoot
        Validity
            Not Before: Jun 12 08:32:34 2023 GMT
            Not After : Jun 11 08:32:34 2033 GMT
        Subject: C=CH, O=HEIG-VD, CN=Martins-TLS
        Subject Public Key Info:
            Public Key Algorithm: rsaEncryption
                RSA Public-Key: (4096 bit)
                Modulus:
                    00:a4:6d:85:b2:7f:31:61:19:f0:40:43:71:f7:2c:
                    f1:a2:7e:7f:a2:36:e0:98:8e:ec:59:01:45:1d:60:
                    01:e9:d4:a5:dd:d2:ff:f8:8f:79:7e:b1:20:8d:21:
                    dc:ff:c9:0a:be:67:c5:7a:39:b1:8c:48:53:67:a4:
                    95:ab:6e:fa:7f:15:e6:c0:ae:f4:6f:77:fd:ad:f7:
                    04:cb:59:2a:9f:1e:f2:df:85:83:cd:51:6a:bb:fe:
                    4a:2b:e4:6d:d9:26:55:5a:15:b4:3e:ba:fc:81:b7:
                    f6:6f:12:bd:7b:85:88:45:78:8d:14:b8:15:96:df:
                    91:02:3b:1d:8e:4d:25:7c:e6:b1:45:ba:2e:ea:8f:
                    ff:a7:c8:d5:0c:e8:2d:bf:da:c5:44:81:e6:03:f2:
                    53:cc:e3:ba:88:57:51:27:a9:6a:cc:40:a8:09:c4:
                    d8:1b:6f:46:6b:5e:38:24:d2:91:b2:0e:9e:b1:38:
                    b1:d6:3e:2a:84:38:f8:20:ce:ae:52:26:8c:7d:c4:
                    d5:b9:28:01:5d:f9:d7:87:7c:e6:20:5f:c0:a2:a0:
                    fd:2b:03:6e:4d:fe:7d:ae:90:3f:09:1f:5a:b8:2e:
                    cf:a6:63:47:88:9b:77:18:6e:6d:ed:8a:3c:2f:c6:
                    2d:45:4d:3f:0a:26:27:91:ef:e1:5f:e0:b1:08:a3:
                    4c:02:06:23:b1:81:81:73:48:78:c6:97:32:38:0a:
                    99:a1:44:a9:b1:04:27:44:4d:68:6b:c0:83:44:30:
                    2a:ac:57:97:e9:40:a7:de:f8:fa:9f:ef:2b:b4:c2:
                    0f:80:12:9f:54:82:aa:e4:d9:6e:35:cc:04:fb:10:
                    88:59:d8:bd:66:22:d2:39:23:5e:16:62:e8:14:07:
                    cf:27:cb:f6:3c:35:ce:c3:e1:d4:e6:fd:b9:3a:ce:
                    3c:8b:58:39:d9:7b:dd:ed:34:29:63:36:47:46:5e:
                    42:82:c5:7a:6d:9a:93:f6:8e:99:d8:f8:c1:a6:af:
                    dc:88:9f:ca:9d:0d:a7:3b:88:21:54:3a:04:b7:e4:
                    74:7a:0d:b2:6e:e6:4b:7e:5a:ea:f5:9c:34:ee:f7:
                    0b:6e:6a:64:bf:7f:f8:66:40:ff:de:8e:db:2a:91:
                    e3:1e:fe:fd:b1:61:63:d5:ef:5b:94:4a:8c:74:9a:
                    ef:46:57:a4:ce:8e:3d:f3:d3:63:79:95:21:d1:95:
                    d4:4c:51:31:33:d4:9f:34:1e:b0:43:1f:91:e3:77:
                    c5:e9:90:17:6f:d8:60:42:6f:1d:0c:4e:90:a4:03:
                    4f:f6:76:95:fe:4b:af:a9:79:5e:23:e9:96:0a:e6:
                    85:c0:f2:32:51:d2:bc:cf:a0:18:79:2f:fa:3a:21:
                    5b:87:59
                Exponent: 65537 (0x10001)
        X509v3 extensions:
            X509v3 Key Usage: critical
                Certificate Sign, CRL Sign
            X509v3 Basic Constraints: critical
                CA:TRUE, pathlen:0
            X509v3 Subject Key Identifier: 
                F0:B6:44:28:06:9B:C9:FC:18:41:4A:C8:10:5A:53:F6:F4:27:A3:6A
            X509v3 Authority Key Identifier: 
                keyid:F0:1F:AE:D6:B3:4D:27:4B:36:53:FE:65:B5:6D:1A:C2:A2:44:B1:D3

    Signature Algorithm: sha256WithRSAEncryption
         77:19:12:5e:c7:74:f0:c0:66:4f:e6:b9:56:9d:46:0d:75:17:
         72:df:40:17:1d:09:88:aa:6e:1a:10:bd:0f:53:8a:cf:a5:8a:
         d1:89:a8:89:10:50:10:2f:3e:bc:40:fa:15:c0:c1:78:af:59:
         eb:31:e2:b7:eb:4b:67:5e:2e:fd:5b:44:b7:a6:43:b0:b5:b3:
         cf:be:01:3b:7d:60:33:6e:94:55:29:fb:a6:31:92:a6:83:f0:
         d8:7d:78:59:64:21:02:2d:6b:3f:d6:29:a8:0e:50:e3:56:4d:
         ab:e4:04:08:0c:7d:96:8f:fa:ab:8b:9a:0c:d1:39:16:6e:74:
         e7:7c:9c:9f:f8:8d:0a:bf:37:31:b0:df:10:d1:d2:26:48:b2:
         58:fb:a8:82:91:e4:c7:ac:89:04:6c:25:c3:6d:c7:1b:fc:a0:
         61:92:1b:18:27:85:5c:26:7c:b9:a1:e9:5f:0f:52:8f:b2:8b:
         9b:1c:0b:a7:22:3d:60:bd:62:0c:d9:d5:e7:4a:69:2f:64:b9:
         05:6e:ac:a2:bf:01:d7:18:fc:f9:ed:34:78:00:b1:57:75:61:
         bb:4f:ba:c0:9f:86:04:32:62:03:3b:45:6e:f6:71:3c:86:b2:
         63:6b:10:73:e5:90:36:d5:09:bb:da:48:c7:94:96:c2:47:4c:
         85:0e:1a:22
-----BEGIN CERTIFICATE-----
MIIESzCCAzOgAwIBAgIBGjANBgkqhkiG9w0BAQsFADA1MQswCQYDVQQGEwJDSDEQ
MA4GA1UECgwHSEVJRy1WRDEUMBIGA1UEAwwLSEVJRy1WRFJvb3QwHhcNMjMwNjEy
MDgzMjM0WhcNMzMwNjExMDgzMjM0WjA1MQswCQYDVQQGEwJDSDEQMA4GA1UECgwH
SEVJRy1WRDEUMBIGA1UEAwwLTWFydGlucy1UTFMwggIiMA0GCSqGSIb3DQEBAQUA
A4ICDwAwggIKAoICAQCkbYWyfzFhGfBAQ3H3LPGifn+iNuCYjuxZAUUdYAHp1KXd
0v/4j3l+sSCNIdz/yQq+Z8V6ObGMSFNnpJWrbvp/FebArvRvd/2t9wTLWSqfHvLf
hYPNUWq7/kor5G3ZJlVaFbQ+uvyBt/ZvEr17hYhFeI0UuBWW35ECOx2OTSV85rFF
ui7qj/+nyNUM6C2/2sVEgeYD8lPM47qIV1EnqWrMQKgJxNgbb0ZrXjgk0pGyDp6x
OLHWPiqEOPggzq5SJox9xNW5KAFd+deHfOYgX8CioP0rA25N/n2ukD8JH1q4Ls+m
Y0eIm3cYbm3tijwvxi1FTT8KJieR7+Ff4LEIo0wCBiOxgYFzSHjGlzI4CpmhRKmx
BCdETWhrwINEMCqsV5fpQKfe+Pqf7yu0wg+AEp9Ugqrk2W41zAT7EIhZ2L1mItI5
I14WYugUB88ny/Y8Nc7D4dTm/bk6zjyLWDnZe93tNCljNkdGXkKCxXptmpP2jpnY
+MGmr9yIn8qdDac7iCFUOgS35HR6DbJu5kt+Wur1nDTu9wtuamS/f/hmQP/ejtsq
keMe/v2xYWPV71uUSox0mu9GV6TOjj3z02N5lSHRldRMUTEz1J80HrBDH5Hjd8Xp
kBdv2GBCbx0MTpCkA0/2dpX+S6+peV4j6ZYK5oXA8jJR0rzPoBh5L/o6IVuHWQID
AQABo2YwZDAOBgNVHQ8BAf8EBAMCAQYwEgYDVR0TAQH/BAgwBgEB/wIBADAdBgNV
HQ4EFgQU8LZEKAabyfwYQUrIEFpT9vQno2owHwYDVR0jBBgwFoAU8B+u1rNNJ0s2
U/5ltW0awqJEsdMwDQYJKoZIhvcNAQELBQADggEBAHcZEl7HdPDAZk/muVadRg11
F3LfQBcdCYiqbhoQvQ9Tis+litGJqIkQUBAvPrxA+hXAwXivWesx4rfrS2deLv1b
RLemQ7C1s8++ATt9YDNulFUp+6YxkqaD8Nh9eFlkIQItaz/WKagOUONWTavkBAgM
fZaP+quLmgzRORZudOd8nJ/4jQq/NzGw3xDR0iZIslj7qIKR5MesiQRsJcNtxxv8
oGGSGxgnhVwmfLmh6V8PUo+yi5scC6ciPWC9YgzZ1edKaS9kuQVurKK/AdcY/Pnt
NHgAsVd1YbtPusCfhgQyYgM7RW72cTyGsmNrEHPlkDbVCbvaSMeUlsJHTIUOGiI=
-----END CERTIFICATE-----
