Certificate:
    Data:
        Version: 3 (0x2)
        Serial Number: 23 (0x17)
        Signature Algorithm: sha256WithRSAEncryption
        Issuer: C=CH, O=HEIG-VD, CN=HEIG-VDRoot
        Validity
            Not Before: Jun 12 08:28:15 2023 GMT
            Not After : Jun 11 08:28:15 2033 GMT
        Subject: C=CH, O=HEIG-VD, CN=Martins-Email
        Subject Public Key Info:
            Public Key Algorithm: rsaEncryption
                RSA Public-Key: (4096 bit)
                Modulus:
                    00:b9:51:9b:9e:65:72:b3:bc:45:73:0f:0a:66:27:
                    a7:0a:1e:68:3c:29:84:58:ee:38:69:7d:4d:2b:a8:
                    70:42:ad:30:40:83:1e:4e:ae:56:71:54:17:5c:86:
                    db:db:69:52:25:a0:6e:82:d4:6f:5e:65:90:dd:52:
                    e8:41:1d:01:69:d3:00:93:c2:7b:9e:62:c7:4e:2c:
                    b9:f5:63:24:0b:0f:37:c6:0d:e3:ab:f9:64:85:60:
                    b5:34:39:a3:16:0c:03:83:8e:06:73:20:16:5d:ba:
                    95:7e:38:28:30:46:48:23:37:d9:dd:11:a4:29:75:
                    54:24:76:20:38:dd:21:51:88:81:1f:7b:8a:cf:2d:
                    f4:aa:aa:77:3e:e3:27:ee:a0:11:27:61:0b:a0:8c:
                    0a:47:d5:21:46:11:07:16:d0:f2:a6:ed:f7:0e:0d:
                    9e:63:b9:aa:2e:eb:80:69:58:35:4c:94:49:a2:18:
                    b1:5d:8c:fc:bf:f6:15:53:2e:12:7a:71:04:b7:bb:
                    83:e5:ad:8c:cb:5c:6b:33:3d:73:99:3f:ad:2b:bd:
                    e4:37:b7:64:82:0c:70:0f:f9:ab:ab:2e:e2:88:20:
                    9b:ad:33:90:a7:c4:59:cb:29:a6:d9:34:52:6d:54:
                    d3:03:73:02:5e:c5:ec:a8:2b:3b:c8:cf:51:90:8e:
                    d4:71:8c:54:0a:5f:98:6e:30:5e:d3:08:50:2a:42:
                    ad:8d:24:d2:ea:1f:a9:bc:8b:49:67:10:7a:72:cc:
                    4f:82:54:59:1e:e9:1a:9f:ac:fa:cb:c4:c7:eb:42:
                    c5:4c:d5:d4:09:aa:a2:e5:f9:ba:d1:0d:4a:0d:96:
                    3b:73:9c:5e:da:63:42:da:77:8f:7b:89:da:32:71:
                    e9:ad:20:4e:e5:fa:b2:83:9d:a8:ad:f5:a9:9d:18:
                    82:ef:ac:58:ae:1b:64:15:6c:f0:80:48:09:e3:92:
                    78:0f:98:c5:eb:88:ca:e0:b5:6d:02:ae:8e:7b:d9:
                    86:70:b2:ab:13:0c:74:45:74:6f:03:00:84:36:a0:
                    4f:8e:fa:70:2e:5e:a1:27:de:47:2d:00:5e:44:24:
                    c7:ff:19:a3:27:54:04:80:f7:e0:c9:94:e8:35:a5:
                    0a:c7:d6:bf:35:dc:c6:8b:54:b4:f3:49:b8:72:7a:
                    eb:4a:3e:6c:b7:d2:46:4e:f7:c3:4f:cd:c3:31:fc:
                    59:46:35:23:19:3f:60:d1:f2:47:4d:87:e7:b4:99:
                    c7:23:44:27:d1:4f:98:40:d0:f1:c9:33:20:cd:c4:
                    5a:e0:a7:e5:1a:22:46:3f:b8:2a:5f:22:5f:ca:81:
                    b9:e6:dd:ef:dc:6c:58:88:05:66:85:49:1f:54:79:
                    7f:61:b9
                Exponent: 65537 (0x10001)
        X509v3 extensions:
            X509v3 Key Usage: critical
                Certificate Sign, CRL Sign
            X509v3 Basic Constraints: critical
                CA:TRUE, pathlen:0
            X509v3 Subject Key Identifier: 
                03:70:A1:2D:01:AA:CE:18:AE:A2:1C:38:9F:DA:79:24:29:72:AA:D7
            X509v3 Authority Key Identifier: 
                keyid:F0:1F:AE:D6:B3:4D:27:4B:36:53:FE:65:B5:6D:1A:C2:A2:44:B1:D3

    Signature Algorithm: sha256WithRSAEncryption
         8d:f6:7b:9c:20:8b:ef:b5:f0:16:4e:cc:d0:42:c5:52:fd:c5:
         7d:d9:e3:e3:2a:cb:53:05:14:5d:4c:57:bd:bd:a2:f4:6b:eb:
         13:72:d5:86:cc:41:a9:62:13:60:82:6e:ac:3d:33:fc:6f:07:
         11:3a:0a:5d:e8:b7:6b:49:58:01:dc:22:2f:38:ee:84:4d:2c:
         c5:83:6d:b3:6c:78:b2:03:d4:65:3e:8a:a2:3a:24:42:7f:a2:
         c9:e1:8c:9e:94:ee:47:ac:dc:a6:02:5f:eb:94:4b:f6:2c:47:
         cc:89:88:96:80:52:b1:07:70:cf:34:13:c6:32:5e:a7:a5:0b:
         d1:f7:59:57:72:a3:40:c3:46:96:f0:68:ac:1b:76:71:5f:3a:
         8b:1b:bc:dd:de:c6:65:8f:b3:c7:aa:2d:95:9b:c4:e4:7f:8f:
         5a:ae:1d:3c:64:e9:10:32:7e:11:5b:3c:55:13:71:f6:71:df:
         97:eb:47:6a:9f:b0:0d:27:f8:22:cb:84:3c:3f:6e:a7:2c:b2:
         37:3a:ef:37:9a:78:fc:11:e8:eb:59:9f:94:ed:1a:98:20:ca:
         c1:38:a3:db:e7:13:0b:b5:31:7b:47:c4:f8:d1:48:93:e5:64:
         f8:34:ac:97:f8:41:6a:22:1d:55:8f:d0:34:19:4b:e2:1d:ba:
         f8:1e:b4:93
-----BEGIN CERTIFICATE-----
MIIETTCCAzWgAwIBAgIBFzANBgkqhkiG9w0BAQsFADA1MQswCQYDVQQGEwJDSDEQ
MA4GA1UECgwHSEVJRy1WRDEUMBIGA1UEAwwLSEVJRy1WRFJvb3QwHhcNMjMwNjEy
MDgyODE1WhcNMzMwNjExMDgyODE1WjA3MQswCQYDVQQGEwJDSDEQMA4GA1UECgwH
SEVJRy1WRDEWMBQGA1UEAwwNTWFydGlucy1FbWFpbDCCAiIwDQYJKoZIhvcNAQEB
BQADggIPADCCAgoCggIBALlRm55lcrO8RXMPCmYnpwoeaDwphFjuOGl9TSuocEKt
MECDHk6uVnFUF1yG29tpUiWgboLUb15lkN1S6EEdAWnTAJPCe55ix04sufVjJAsP
N8YN46v5ZIVgtTQ5oxYMA4OOBnMgFl26lX44KDBGSCM32d0RpCl1VCR2IDjdIVGI
gR97is8t9Kqqdz7jJ+6gESdhC6CMCkfVIUYRBxbQ8qbt9w4NnmO5qi7rgGlYNUyU
SaIYsV2M/L/2FVMuEnpxBLe7g+WtjMtcazM9c5k/rSu95De3ZIIMcA/5q6su4ogg
m60zkKfEWcspptk0Um1U0wNzAl7F7KgrO8jPUZCO1HGMVApfmG4wXtMIUCpCrY0k
0uofqbyLSWcQenLMT4JUWR7pGp+s+svEx+tCxUzV1AmqouX5utENSg2WO3OcXtpj
Qtp3j3uJ2jJx6a0gTuX6soOdqK31qZ0Ygu+sWK4bZBVs8IBICeOSeA+YxeuIyuC1
bQKujnvZhnCyqxMMdEV0bwMAhDagT476cC5eoSfeRy0AXkQkx/8ZoydUBID34MmU
6DWlCsfWvzXcxotUtPNJuHJ660o+bLfSRk73w0/NwzH8WUY1Ixk/YNHyR02H57SZ
xyNEJ9FPmEDQ8ckzIM3EWuCn5RoiRj+4Kl8iX8qBuebd79xsWIgFZoVJH1R5f2G5
AgMBAAGjZjBkMA4GA1UdDwEB/wQEAwIBBjASBgNVHRMBAf8ECDAGAQH/AgEAMB0G
A1UdDgQWBBQDcKEtAarOGK6iHDif2nkkKXKq1zAfBgNVHSMEGDAWgBTwH67Ws00n
SzZT/mW1bRrCokSx0zANBgkqhkiG9w0BAQsFAAOCAQEAjfZ7nCCL77XwFk7M0ELF
Uv3Ffdnj4yrLUwUUXUxXvb2i9GvrE3LVhsxBqWITYIJurD0z/G8HEToKXei3a0lY
AdwiLzjuhE0sxYNts2x4sgPUZT6KojokQn+iyeGMnpTuR6zcpgJf65RL9ixHzImI
loBSsQdwzzQTxjJep6UL0fdZV3KjQMNGlvBorBt2cV86ixu83d7GZY+zx6otlZvE
5H+PWq4dPGTpEDJ+EVs8VRNx9nHfl+tHap+wDSf4IsuEPD9upyyyNzrvN5p4/BHo
61mflO0amCDKwTij2+cTC7Uxe0fE+NFIk+Vk+DSsl/hBaiIdVY/QNBlL4h26+B60
kw==
-----END CERTIFICATE-----
